; Function Attrs: nounwind uwtable
define internal noundef ptr @readline_replace_history_item(ptr readnone captures(none) %0, ptr noundef readonly captures(none) %1, i64 noundef %2) #0 {
  %or.cond = icmp eq i64 %2, 2
  br i1 %or.cond, label %6, label %4

4:                                                ; preds = %3
  %5 = tail call i32 @_PyArg_CheckPositional(ptr noundef nonnull @.str.27, i64 noundef %2, i64 noundef 2, i64 noundef 2) #14
  %.not = icmp eq i32 %5, 0
  br i1 %.not, label %readline_replace_history_item_impl.exit, label %6

6:                                                ; preds = %3, %4
  %7 = load ptr, ptr %1, align 8, !tbaa !41
  %8 = tail call i32 @PyLong_AsInt(ptr noundef %7) #14
  %9 = icmp eq i32 %8, -1
  br i1 %9, label %10, label %12

10:                                               ; preds = %6
  %11 = tail call ptr @PyErr_Occurred() #14
  %.not12 = icmp eq ptr %11, null
  br i1 %.not12, label %.thread, label %readline_replace_history_item_impl.exit

12:                                               ; preds = %6
  %13 = getelementptr i8, ptr %1, i64 8
  %14 = load ptr, ptr %13, align 8, !tbaa !41
  %15 = getelementptr i8, ptr %14, i64 8
  %.val = load ptr, ptr %15, align 8, !tbaa !44
  %16 = getelementptr i8, ptr %.val, i64 168
  %.val14 = load i64, ptr %16, align 8, !tbaa !45
  %17 = and i64 %.val14, 268435456
  %.not13 = icmp eq i64 %17, 0
  br i1 %.not13, label %23, label %25

.thread:                                          ; preds = %10
  %18 = getelementptr i8, ptr %1, i64 8
  %19 = load ptr, ptr %18, align 8, !tbaa !41
  %20 = getelementptr i8, ptr %19, i64 8
  %.val15 = load ptr, ptr %20, align 8, !tbaa !44
  %21 = getelementptr i8, ptr %.val15, i64 168
  %.val1416 = load i64, ptr %21, align 8, !tbaa !45
  %22 = and i64 %.val1416, 268435456
  %.not1317 = icmp eq i64 %22, 0
  br i1 %.not1317, label %23, label %.thread18

23:                                               ; preds = %.thread, %12
  %24 = phi ptr [ %19, %.thread ], [ %14, %12 ]
  tail call void @_PyArg_BadArgument(ptr noundef nonnull @.str.27, ptr noundef nonnull @.str.42, ptr noundef nonnull @.str.43, ptr noundef nonnull %24) #14
  br label %readline_replace_history_item_impl.exit

25:                                               ; preds = %12
  %26 = icmp slt i32 %8, 0
  br i1 %26, label %.thread18, label %28

.thread18:                                        ; preds = %.thread, %25
  %27 = load ptr, ptr @PyExc_ValueError, align 8, !tbaa !41
  tail call void @PyErr_SetString(ptr noundef %27, ptr noundef nonnull @.str.40) #14
  br label %readline_replace_history_item_impl.exit

28:                                               ; preds = %25
  %29 = tail call ptr @PyUnicode_EncodeLocale(ptr noundef nonnull %14, ptr noundef nonnull @.str.34) #14
  %30 = icmp eq ptr %29, null
  br i1 %30, label %readline_replace_history_item_impl.exit, label %31

31:                                               ; preds = %28
  %.b.i = load i1, ptr @libedit_append_replace_history_offset, align 1
  %32 = zext i1 %.b.i to i32
  %33 = add nuw i32 %8, %32
  %34 = getelementptr inbounds nuw i8, ptr %29, i64 32
  %35 = tail call ptr @replace_history_entry(i32 noundef %33, ptr noundef nonnull %34, ptr noundef null) #14
  %36 = load i32, ptr %29, align 8, !tbaa !25
  %.not.i.i = icmp sgt i32 %36, -1
  br i1 %.not.i.i, label %37, label %Py_DECREF.exit.i

37:                                               ; preds = %31
  %38 = add nsw i32 %36, -1
  store i32 %38, ptr %29, align 8, !tbaa !25
  %39 = icmp eq i32 %38, 0
  br i1 %39, label %40, label %Py_DECREF.exit.i

40:                                               ; preds = %37
  tail call void @_Py_Dealloc(ptr noundef nonnull %29) #14
  br label %Py_DECREF.exit.i

Py_DECREF.exit.i:                                 ; preds = %40, %37, %31
  %.not.i = icmp eq ptr %35, null
  br i1 %.not.i, label %41, label %44

41:                                               ; preds = %Py_DECREF.exit.i
  %42 = load ptr, ptr @PyExc_ValueError, align 8, !tbaa !41
  %43 = tail call ptr (ptr, ptr, ...) @PyErr_Format(ptr noundef %42, ptr noundef nonnull @.str.41, i32 noundef %8) #14
  br label %readline_replace_history_item_impl.exit

44:                                               ; preds = %Py_DECREF.exit.i
  %45 = tail call ptr @free_history_entry(ptr noundef nonnull %35) #14
  tail call void @free(ptr noundef %45) #14
  br label %readline_replace_history_item_impl.exit

readline_replace_history_item_impl.exit:          ; preds = %44, %41, %28, %.thread18, %10, %4, %23
  %.0 = phi ptr [ null, %10 ], [ null, %23 ], [ null, %4 ], [ null, %.thread18 ], [ @_Py_NoneStruct, %44 ], [ null, %41 ], [ null, %28 ]
  ret ptr %.0
}